; Function Attrs: mustprogress uwtable
define hidden noundef zeroext i1 @_ZNK8facebook6hermes7tracing10SynthTrace22CreatePropNameIDRecordeqERKNS2_6RecordE(ptr noundef nonnull align 8 dereferenceable(76) %this, ptr noundef nonnull align 8 dereferenceable(16) %that) unnamed_addr #1 align 2 personality ptr @__gxx_personality_v0 {
entry:
  %vtable.i = load ptr, ptr %this, align 8
  %vfn.i = getelementptr inbounds i8, ptr %vtable.i, i64 16
  %0 = load ptr, ptr %vfn.i, align 8
  %call.i = tail call noundef i32 %0(ptr noundef nonnull align 8 dereferenceable(16) %this)
  %vtable2.i = load ptr, ptr %that, align 8
  %vfn3.i = getelementptr inbounds i8, ptr %vtable2.i, i64 16
  %1 = load ptr, ptr %vfn3.i, align 8
  %call4.i = tail call noundef i32 %1(ptr noundef nonnull align 8 dereferenceable(16) %that)
  %cmp.i = icmp eq i32 %call.i, %call4.i
  br i1 %cmp.i, label %if.end, label %return

if.end:                                           ; preds = %entry
  %2 = tail call ptr @__dynamic_cast(ptr nonnull %that, ptr nonnull @_ZTIN8facebook6hermes7tracing10SynthTrace6RecordE, ptr nonnull @_ZTIN8facebook6hermes7tracing10SynthTrace22CreatePropNameIDRecordE, i64 0) #23
  %3 = icmp eq ptr %2, null
  br i1 %3, label %dynamic_cast.bad_cast, label %dynamic_cast.end

dynamic_cast.bad_cast:                            ; preds = %if.end
  tail call void @__cxa_bad_cast() #26
  unreachable

dynamic_cast.end:                                 ; preds = %if.end
  %propNameID_ = getelementptr inbounds i8, ptr %this, i64 16
  %4 = load i64, ptr %propNameID_, align 8
  %propNameID_2 = getelementptr inbounds i8, ptr %2, i64 16
  %5 = load i64, ptr %propNameID_2, align 8
  %cmp = icmp eq i64 %4, %5
  br i1 %cmp, label %land.lhs.true, label %return

land.lhs.true:                                    ; preds = %dynamic_cast.end
  %valueType_ = getelementptr inbounds i8, ptr %this, i64 72
  %6 = load i32, ptr %valueType_, align 8
  %valueType_3 = getelementptr inbounds i8, ptr %2, i64 72
  %7 = load i32, ptr %valueType_3, align 8
  %cmp4 = icmp eq i32 %6, %7
  br i1 %cmp4, label %land.lhs.true5, label %return

land.lhs.true5:                                   ; preds = %land.lhs.true
  %traceValue_ = getelementptr inbounds i8, ptr %this, i64 56
  %traceValue_6 = getelementptr inbounds i8, ptr %2, i64 56
  %8 = load i32, ptr %traceValue_, align 8
  %9 = load i32, ptr %traceValue_6, align 8
  %cmp.not.i = icmp eq i32 %8, %9
  br i1 %cmp.not.i, label %if.end.i, label %return

if.end.i:                                         ; preds = %land.lhs.true5
  switch i32 %8, label %land.rhs [
    i32 2, label %_ZNK8facebook6hermes7tracing10SynthTrace10TraceValueeqERKS3_.exit
    i32 3, label %sw.bb8.i
    i32 4, label %sw.bb12.i
    i32 5, label %sw.bb12.i
    i32 6, label %sw.bb12.i
  ]

sw.bb8.i:                                         ; preds = %if.end.i
  %val_9.i = getelementptr inbounds i8, ptr %this, i64 64
  %10 = load double, ptr %val_9.i, align 8
  %val_10.i = getelementptr inbounds i8, ptr %2, i64 64
  %11 = load double, ptr %val_10.i, align 8
  %cmp11.i = fcmp oeq double %10, %11
  br i1 %cmp11.i, label %land.rhs, label %return

sw.bb12.i:                                        ; preds = %if.end.i, %if.end.i, %if.end.i
  %val_13.i = getelementptr inbounds i8, ptr %this, i64 64
  %12 = load i64, ptr %val_13.i, align 8
  %val_14.i = getelementptr inbounds i8, ptr %2, i64 64
  %13 = load i64, ptr %val_14.i, align 8
  %cmp15.i = icmp eq i64 %12, %13
  br i1 %cmp15.i, label %land.rhs, label %return

_ZNK8facebook6hermes7tracing10SynthTrace10TraceValueeqERKS3_.exit: ; preds = %if.end.i
  %val_.i = getelementptr inbounds i8, ptr %this, i64 64
  %14 = load i8, ptr %val_.i, align 8
  %val_4.i = getelementptr inbounds i8, ptr %2, i64 64
  %15 = load i8, ptr %val_4.i, align 8
  %16 = xor i8 %15, %14
  %17 = and i8 %16, 1
  %cmp7.i = icmp eq i8 %17, 0
  br i1 %cmp7.i, label %land.rhs, label %return

land.rhs:                                         ; preds = %if.end.i, %sw.bb8.i, %sw.bb12.i, %_ZNK8facebook6hermes7tracing10SynthTrace10TraceValueeqERKS3_.exit
  %chars_ = getelementptr inbounds i8, ptr %this, i64 24
  %chars_8 = getelementptr inbounds i8, ptr %2, i64 24
  %call.i5 = tail call noundef i64 @_ZNKSt7__cxx1112basic_stringIcSt11char_traitsIcESaIcEE4sizeEv(ptr noundef nonnull align 8 dereferenceable(32) %chars_) #23
  %call1.i = tail call noundef i64 @_ZNKSt7__cxx1112basic_stringIcSt11char_traitsIcESaIcEE4sizeEv(ptr noundef nonnull align 8 dereferenceable(32) %chars_8) #23
  %cmp.i6 = icmp eq i64 %call.i5, %call1.i
  br i1 %cmp.i6, label %land.rhs.i, label %return

land.rhs.i:                                       ; preds = %land.rhs
  %call2.i = tail call noundef ptr @_ZNKSt7__cxx1112basic_stringIcSt11char_traitsIcESaIcEE4dataEv(ptr noundef nonnull align 8 dereferenceable(32) %chars_) #23
  %call3.i = tail call noundef ptr @_ZNKSt7__cxx1112basic_stringIcSt11char_traitsIcESaIcEE4dataEv(ptr noundef nonnull align 8 dereferenceable(32) %chars_8) #23
  %call4.i7 = tail call noundef i64 @_ZNKSt7__cxx1112basic_stringIcSt11char_traitsIcESaIcEE4sizeEv(ptr noundef nonnull align 8 dereferenceable(32) %chars_) #23
  %cmp.i.i = icmp eq i64 %call4.i7, 0
  br i1 %cmp.i.i, label %return, label %if.end.i.i

if.end.i.i:                                       ; preds = %land.rhs.i
  %bcmp.i = tail call i32 @bcmp(ptr %call2.i, ptr %call3.i, i64 %call4.i7)
  %18 = icmp eq i32 %bcmp.i, 0
  br label %return

return:                                           ; preds = %land.lhs.true5, %if.end.i.i, %land.rhs.i, %land.rhs, %sw.bb8.i, %sw.bb12.i, %dynamic_cast.end, %land.lhs.true, %_ZNK8facebook6hermes7tracing10SynthTrace10TraceValueeqERKS3_.exit, %entry
  %retval.0 = phi i1 [ false, %entry ], [ false, %_ZNK8facebook6hermes7tracing10SynthTrace10TraceValueeqERKS3_.exit ], [ false, %land.lhs.true ], [ false, %dynamic_cast.end ], [ false, %sw.bb12.i ], [ false, %sw.bb8.i ], [ false, %land.rhs ], [ %18, %if.end.i.i ], [ true, %land.rhs.i ], [ false, %land.lhs.true5 ]
  ret i1 %retval.0
}